target datalayout = "e-m:e-p270:32:32-p271:32:32-p272:64:64-i64:64-i128:128-f80:128-n8:16:32:64-S128"
target triple = "x86_64-pc-linux-gnu"

%struct.lexbor_array_obj_t = type { ptr, i64, i64, i64 }

; Function Attrs: nounwind uwtable
define hidden void @lexbor_array_obj_delete(ptr noundef %0, i64 noundef %1, i64 noundef %2) #0 {
  %4 = alloca ptr, align 8
  %5 = alloca i64, align 8
  %6 = alloca i64, align 8
  %7 = alloca i64, align 8
  store ptr %0, ptr %4, align 8
  store i64 %1, ptr %5, align 8
  store i64 %2, ptr %6, align 8
  %8 = load i64, ptr %5, align 8
  %9 = load ptr, ptr %4, align 8
  %10 = getelementptr inbounds %struct.lexbor_array_obj_t, ptr %9, i32 0, i32 2
  %11 = load i64, ptr %10, align 8
  %12 = icmp uge i64 %8, %11
  br i1 %12, label %16, label %13

13:                                               ; preds = %3
  %14 = load i64, ptr %6, align 8
  %15 = icmp eq i64 %14, 0
  br i1 %15, label %16, label %17

16:                                               ; preds = %13, %3
  br label %64

17:                                               ; preds = %13
  %18 = load i64, ptr %5, align 8
  %19 = load i64, ptr %6, align 8
  %20 = add i64 %18, %19
  store i64 %20, ptr %7, align 8
  %21 = load i64, ptr %7, align 8
  %22 = load ptr, ptr %4, align 8
  %23 = getelementptr inbounds %struct.lexbor_array_obj_t, ptr %22, i32 0, i32 2
  %24 = load i64, ptr %23, align 8
  %25 = icmp uge i64 %21, %24
  br i1 %25, label %26, label %30

26:                                               ; preds = %17
  %27 = load i64, ptr %5, align 8
  %28 = load ptr, ptr %4, align 8
  %29 = getelementptr inbounds %struct.lexbor_array_obj_t, ptr %28, i32 0, i32 2
  store i64 %27, ptr %29, align 8
  br label %64

30:                                               ; preds = %17
  %31 = load ptr, ptr %4, align 8
  %32 = getelementptr inbounds %struct.lexbor_array_obj_t, ptr %31, i32 0, i32 0
  %33 = load ptr, ptr %32, align 8
  %34 = load i64, ptr %5, align 8
  %35 = load ptr, ptr %4, align 8
  %36 = getelementptr inbounds %struct.lexbor_array_obj_t, ptr %35, i32 0, i32 3
  %37 = load i64, ptr %36, align 8
  %38 = mul i64 %34, %37
  %39 = getelementptr inbounds i8, ptr %33, i64 %38
  %40 = load ptr, ptr %4, align 8
  %41 = getelementptr inbounds %struct.lexbor_array_obj_t, ptr %40, i32 0, i32 0
  %42 = load ptr, ptr %41, align 8
  %43 = load i64, ptr %7, align 8
  %44 = load ptr, ptr %4, align 8
  %45 = getelementptr inbounds %struct.lexbor_array_obj_t, ptr %44, i32 0, i32 3
  %46 = load i64, ptr %45, align 8
  %47 = mul i64 %43, %46
  %48 = getelementptr inbounds i8, ptr %42, i64 %47
  %49 = load ptr, ptr %4, align 8
  %50 = getelementptr inbounds %struct.lexbor_array_obj_t, ptr %49, i32 0, i32 2
  %51 = load i64, ptr %50, align 8
  %52 = load i64, ptr %7, align 8
  %53 = sub i64 %51, %52
  %54 = load ptr, ptr %4, align 8
  %55 = getelementptr inbounds %struct.lexbor_array_obj_t, ptr %54, i32 0, i32 3
  %56 = load i64, ptr %55, align 8
  %57 = mul i64 %53, %56
  %58 = mul i64 8, %57
  call void @llvm.memmove.p0.p0.i64(ptr align 1 %39, ptr align 1 %48, i64 %58, i1 false)
  %59 = load i64, ptr %6, align 8
  %60 = load ptr, ptr %4, align 8
  %61 = getelementptr inbounds %struct.lexbor_array_obj_t, ptr %60, i32 0, i32 2
  %62 = load i64, ptr %61, align 8
  %63 = sub i64 %62, %59
  store i64 %63, ptr %61, align 8
  br label %64

64:                                               ; preds = %30, %26, %16
  ret void
}