; Function Attrs: mustprogress nofree norecurse nosync nounwind willreturn memory(readwrite, inaccessiblemem: none) uwtable
define hidden void @lexbor_array_obj_delete(ptr nocapture noundef %0, i64 noundef %1, i64 noundef %2) local_unnamed_addr #5 {
  %4 = getelementptr inbounds i8, ptr %0, i64 16
  %5 = load i64, ptr %4, align 8
  %6 = icmp ule i64 %5, %1
  %7 = icmp eq i64 %2, 0
  %or.cond = or i1 %7, %6
  br i1 %or.cond, label %23, label %8

8:                                                ; preds = %3
  %9 = add i64 %2, %1
  %.not = icmp ult i64 %9, %5
  br i1 %.not, label %10, label %.sink.split

10:                                               ; preds = %8
  %11 = load ptr, ptr %0, align 8
  %12 = getelementptr inbounds i8, ptr %0, i64 24
  %13 = load i64, ptr %12, align 8
  %14 = mul i64 %13, %1
  %15 = getelementptr inbounds i8, ptr %11, i64 %14
  %16 = mul i64 %13, %9
  %17 = getelementptr inbounds i8, ptr %11, i64 %16
  %18 = sub i64 %5, %9
  %19 = shl i64 %18, 3
  %20 = mul i64 %19, %13
  tail call void @llvm.memmove.p0.p0.i64(ptr align 1 %15, ptr align 1 %17, i64 %20, i1 false)
  %21 = load i64, ptr %4, align 8
  %22 = sub i64 %21, %2
  br label %.sink.split

.sink.split:                                      ; preds = %8, %10
  %.sink = phi i64 [ %22, %10 ], [ %1, %8 ]
  store i64 %.sink, ptr %4, align 8
  br label %23

23:                                               ; preds = %.sink.split, %3
  ret void
}